; Function Attrs: mustprogress uwtable
define hidden void @_ZNK3ue219RoseInstrCheckInfix5writeEPvRNS_14RoseEngineBlobERKSt13unordered_mapIPKNS_15RoseInstructionEjSt4hashIS7_ESt8equal_toIS7_ESaISt4pairIKS7_jEEE(ptr noundef nonnull align 8 dereferenceable(32) %0, ptr noundef writeonly captures(none) initializes((0, 20)) %1, ptr nonnull readnone align 8 captures(none) %2, ptr noundef nonnull readonly align 8 captures(none) dereferenceable(56) %3) unnamed_addr #5 align 2 personality ptr @__gxx_personality_v0 {
  tail call void @llvm.memset.p0.i64(ptr noundef nonnull align 4 dereferenceable(20) %1, i8 0, i64 20, i1 false)
  store i8 16, ptr %1, align 4
  %5 = getelementptr inbounds nuw i8, ptr %0, i64 8
  %6 = load i32, ptr %5, align 8
  %7 = getelementptr inbounds nuw i8, ptr %1, i64 4
  store i32 %6, ptr %7, align 4
  %8 = getelementptr inbounds nuw i8, ptr %0, i64 12
  %9 = load i32, ptr %8, align 4
  %10 = getelementptr inbounds nuw i8, ptr %1, i64 8
  store i32 %9, ptr %10, align 4
  %11 = getelementptr inbounds nuw i8, ptr %0, i64 16
  %12 = load i32, ptr %11, align 8
  %13 = getelementptr inbounds nuw i8, ptr %1, i64 12
  store i32 %12, ptr %13, align 4
  %14 = getelementptr inbounds nuw i8, ptr %0, i64 24
  %15 = load ptr, ptr %14, align 8
  %16 = tail call fastcc noundef i32 @_ZN3ue2L9calc_jumpERKSt13unordered_mapIPKNS_15RoseInstructionEjSt4hashIS3_ESt8equal_toIS3_ESaISt4pairIKS3_jEEES3_S3_(ptr noundef nonnull align 8 dereferenceable(56) %3, ptr noundef %0, ptr noundef %15)
  %17 = getelementptr inbounds nuw i8, ptr %1, i64 16
  store i32 %16, ptr %17, align 4
  ret void
}